; Function Attrs: mustprogress uwtable
define internal fastcc void @_ZN12_GLOBAL__N_111concat_nameEPN5Yosys5RTLIL4CellENS1_8IdStringE(ptr dead_on_unwind noalias nocapture writable writeonly align 4 %0, ptr nocapture noundef readonly %1, i32 %.0.val) unnamed_addr #4 personality ptr @__gxx_personality_v0 {
  %3 = alloca %"class.std::allocator", align 1
  %4 = alloca %"class.std::__cxx11::basic_string", align 8
  %5 = alloca %"class.std::__cxx11::basic_string", align 8
  %6 = alloca %"class.std::__cxx11::basic_string", align 8
  %7 = alloca %"class.std::__cxx11::basic_string", align 8
  %8 = sext i32 %.0.val to i64
  %9 = load ptr, ptr getelementptr inbounds (%"class.std::vector.314", ptr @_ZN5Yosys5RTLIL8IdString18global_id_storage_E, i64 0, i32 0, i32 0, i32 0, i32 1), align 8
  %10 = load ptr, ptr @_ZN5Yosys5RTLIL8IdString18global_id_storage_E, align 8
  %11 = ptrtoint ptr %9 to i64
  %12 = ptrtoint ptr %10 to i64
  %13 = sub i64 %11, %12
  %14 = ashr exact i64 %13, 3
  %.not.i.i.i.i = icmp ugt i64 %14, %8
  br i1 %.not.i.i.i.i, label %_ZNK5Yosys5RTLIL8IdStringixEm.exit, label %15

15:                                               ; preds = %2
  tail call void (ptr, ...) @_ZSt24__throw_out_of_range_fmtPKcz(ptr noundef nonnull @.str.37, i64 noundef %8, i64 noundef %14) #23
  unreachable

_ZNK5Yosys5RTLIL8IdStringixEm.exit:               ; preds = %2
  %16 = getelementptr inbounds ptr, ptr %10, i64 %8
  %17 = load ptr, ptr %16, align 8
  %18 = load i8, ptr %17, align 1
  %19 = icmp eq i8 %18, 92
  br i1 %19, label %20, label %_ZNSt6vectorIPcSaIS0_EE2atEm.exit.i

20:                                               ; preds = %_ZNK5Yosys5RTLIL8IdStringixEm.exit
  %21 = getelementptr inbounds i8, ptr %1, i64 72
  %22 = load i32, ptr %21, align 4
  %23 = sext i32 %22 to i64
  %.not.i.i.i = icmp ugt i64 %14, %23
  br i1 %.not.i.i.i, label %_ZNK5Yosys5RTLIL8IdString5c_strEv.exit9, label %24

24:                                               ; preds = %20
  tail call void (ptr, ...) @_ZSt24__throw_out_of_range_fmtPKcz(ptr noundef nonnull @.str.37, i64 noundef %23, i64 noundef %14) #23
  unreachable

_ZNK5Yosys5RTLIL8IdString5c_strEv.exit9:          ; preds = %20
  %25 = getelementptr inbounds ptr, ptr %10, i64 %23
  %26 = load ptr, ptr %25, align 8
  %27 = getelementptr inbounds i8, ptr %17, i64 1
  call void (ptr, ptr, ...) @_ZN5Yosys7stringfB5cxx11EPKcz(ptr dead_on_unwind nonnull writable sret(%"class.std::__cxx11::basic_string") align 8 %4, ptr noundef nonnull @.str.54, ptr noundef %26, ptr noundef nonnull %27)
  %28 = call noundef ptr @_ZNKSt7__cxx1112basic_stringIcSt11char_traitsIcESaIcEE5c_strEv(ptr noundef nonnull align 8 dereferenceable(32) %4) #21
  %29 = invoke noundef i32 @_ZN5Yosys5RTLIL8IdString13get_referenceEPKc(ptr noundef %28)
          to label %30 unwind label %31

30:                                               ; preds = %_ZNK5Yosys5RTLIL8IdString5c_strEv.exit9
  store i32 %29, ptr %0, align 4
  br label %64

31:                                               ; preds = %_ZNK5Yosys5RTLIL8IdString5c_strEv.exit9
  %32 = landingpad { ptr, i32 }
          cleanup
  call void @_ZNSt7__cxx1112basic_stringIcSt11char_traitsIcESaIcEED1Ev(ptr noundef nonnull align 8 dereferenceable(32) %4) #21
  br label %common.resume

_ZNSt6vectorIPcSaIS0_EE2atEm.exit.i:              ; preds = %_ZNK5Yosys5RTLIL8IdStringixEm.exit
  call void @llvm.lifetime.start.p0(i64 1, ptr nonnull %3)
  call void @_ZNSaIcEC1Ev(ptr noundef nonnull align 1 dereferenceable(1) %3) #21, !noalias !244
  invoke void @_ZNSt7__cxx1112basic_stringIcSt11char_traitsIcESaIcEEC1EPKcRKS3_(ptr noundef nonnull align 8 dereferenceable(32) %5, ptr noundef nonnull %17, ptr noundef nonnull align 1 dereferenceable(1) %3)
          to label %_ZNK5Yosys5RTLIL8IdString3strB5cxx11Ev.exit unwind label %33

common.resume:                                    ; preds = %31, %63, %33
  %common.resume.op = phi { ptr, i32 } [ %34, %33 ], [ %32, %31 ], [ %.pn, %63 ]
  resume { ptr, i32 } %common.resume.op

33:                                               ; preds = %_ZNSt6vectorIPcSaIS0_EE2atEm.exit.i
  %34 = landingpad { ptr, i32 }
          cleanup
  call void @_ZNSaIcED1Ev(ptr noundef nonnull align 1 dereferenceable(1) %3) #21
  br label %common.resume

_ZNK5Yosys5RTLIL8IdString3strB5cxx11Ev.exit:      ; preds = %_ZNSt6vectorIPcSaIS0_EE2atEm.exit.i
  call void @_ZNSaIcED1Ev(ptr noundef nonnull align 1 dereferenceable(1) %3) #21
  call void @llvm.lifetime.end.p0(i64 1, ptr nonnull %3)
  invoke void @_ZNKSt7__cxx1112basic_stringIcSt11char_traitsIcESaIcEE6substrEmm(ptr dead_on_unwind nonnull writable sret(%"class.std::__cxx11::basic_string") align 8 %6, ptr noundef nonnull align 8 dereferenceable(32) %5, i64 noundef 0, i64 noundef 8)
          to label %35 unwind label %40

35:                                               ; preds = %_ZNK5Yosys5RTLIL8IdString3strB5cxx11Ev.exit
  %36 = call noundef i32 @_ZNKSt7__cxx1112basic_stringIcSt11char_traitsIcESaIcEE7compareEPKc(ptr noundef nonnull align 8 dereferenceable(32) %6, ptr noundef nonnull @.str.55) #21
  %37 = icmp eq i32 %36, 0
  call void @_ZNSt7__cxx1112basic_stringIcSt11char_traitsIcESaIcEED1Ev(ptr noundef nonnull align 8 dereferenceable(32) %6) #21
  br i1 %37, label %38, label %42

38:                                               ; preds = %35
  %39 = invoke noundef nonnull align 8 dereferenceable(32) ptr @_ZNSt7__cxx1112basic_stringIcSt11char_traitsIcESaIcEE5eraseEmm(ptr noundef nonnull align 8 dereferenceable(32) %5, i64 noundef 0, i64 noundef 8)
          to label %42 unwind label %40

40:                                               ; preds = %52, %53, %38, %_ZNK5Yosys5RTLIL8IdString3strB5cxx11Ev.exit
  %41 = landingpad { ptr, i32 }
          cleanup
  br label %63

42:                                               ; preds = %38, %35
  %43 = getelementptr inbounds i8, ptr %1, i64 72
  %44 = load i32, ptr %43, align 4
  %45 = sext i32 %44 to i64
  %46 = load ptr, ptr getelementptr inbounds (%"class.std::vector.314", ptr @_ZN5Yosys5RTLIL8IdString18global_id_storage_E, i64 0, i32 0, i32 0, i32 0, i32 1), align 8
  %47 = load ptr, ptr @_ZN5Yosys5RTLIL8IdString18global_id_storage_E, align 8
  %48 = ptrtoint ptr %46 to i64
  %49 = ptrtoint ptr %47 to i64
  %50 = sub i64 %48, %49
  %51 = ashr exact i64 %50, 3
  %.not.i.i.i11 = icmp ugt i64 %51, %45
  br i1 %.not.i.i.i11, label %53, label %52

52:                                               ; preds = %42
  invoke void (ptr, ...) @_ZSt24__throw_out_of_range_fmtPKcz(ptr noundef nonnull @.str.37, i64 noundef %45, i64 noundef %51) #23
          to label %.noexc unwind label %40

.noexc:                                           ; preds = %52
  unreachable

53:                                               ; preds = %42
  %54 = getelementptr inbounds ptr, ptr %47, i64 %45
  %55 = load ptr, ptr %54, align 8
  %56 = call noundef ptr @_ZNKSt7__cxx1112basic_stringIcSt11char_traitsIcESaIcEE5c_strEv(ptr noundef nonnull align 8 dereferenceable(32) %5) #21
  invoke void (ptr, ptr, ...) @_ZN5Yosys7stringfB5cxx11EPKcz(ptr dead_on_unwind nonnull writable sret(%"class.std::__cxx11::basic_string") align 8 %7, ptr noundef nonnull @.str.56, ptr noundef %55, ptr noundef %56)
          to label %57 unwind label %40

57:                                               ; preds = %53
  %58 = call noundef ptr @_ZNKSt7__cxx1112basic_stringIcSt11char_traitsIcESaIcEE5c_strEv(ptr noundef nonnull align 8 dereferenceable(32) %7) #21
  %59 = invoke noundef i32 @_ZN5Yosys5RTLIL8IdString13get_referenceEPKc(ptr noundef %58)
          to label %60 unwind label %61

60:                                               ; preds = %57
  store i32 %59, ptr %0, align 4
  call void @_ZNSt7__cxx1112basic_stringIcSt11char_traitsIcESaIcEED1Ev(ptr noundef nonnull align 8 dereferenceable(32) %7) #21
  br label %64

61:                                               ; preds = %57
  %62 = landingpad { ptr, i32 }
          cleanup
  call void @_ZNSt7__cxx1112basic_stringIcSt11char_traitsIcESaIcEED1Ev(ptr noundef nonnull align 8 dereferenceable(32) %7) #21
  br label %63

63:                                               ; preds = %61, %40
  %.pn = phi { ptr, i32 } [ %62, %61 ], [ %41, %40 ]
  call void @_ZNSt7__cxx1112basic_stringIcSt11char_traitsIcESaIcEED1Ev(ptr noundef nonnull align 8 dereferenceable(32) %5) #21
  br label %common.resume

64:                                               ; preds = %60, %30
  %.sink = phi ptr [ %5, %60 ], [ %4, %30 ]
  call void @_ZNSt7__cxx1112basic_stringIcSt11char_traitsIcESaIcEED1Ev(ptr noundef nonnull align 8 dereferenceable(32) %.sink) #21
  ret void
}